; Function Attrs: mustprogress uwtable
define void @_Z10cvIplImageRKN2cv3MatE(ptr dead_on_unwind noalias writable sret(%struct._IplImage) align 8 %0, ptr noundef nonnull readonly align 8 captures(none) dereferenceable(96) %1) local_unnamed_addr #0 personality ptr @__gxx_personality_v0 {
  %3 = alloca %"class.std::__cxx11::basic_string", align 8
  %4 = alloca %"class.std::allocator", align 1
  %5 = getelementptr inbounds nuw i8, ptr %1, i64 4
  %6 = load i32, ptr %5, align 4, !tbaa !3
  %7 = icmp slt i32 %6, 3
  br i1 %7, label %18, label %8

8:                                                ; preds = %2
  call void @llvm.lifetime.start.p0(i64 32, ptr nonnull %3) #13
  call void @llvm.lifetime.start.p0(i64 1, ptr nonnull %4) #13
  call void @_ZNSt7__cxx1112basic_stringIcSt11char_traitsIcESaIcEEC2EPKcRKS3_(ptr noundef nonnull align 8 dereferenceable(32) %3, ptr noundef nonnull @.str, ptr noundef nonnull align 1 dereferenceable(1) %4)
  invoke void @_ZN2cv5errorEiRKNSt7__cxx1112basic_stringIcSt11char_traitsIcESaIcEEEPKcS9_i(i32 noundef -215, ptr noundef nonnull align 8 dereferenceable(32) %3, ptr noundef nonnull @__func__._Z10cvIplImageRKN2cv3MatE, ptr noundef nonnull @.str.1, i32 noundef 26) #14
          to label %9 unwind label %10

9:                                                ; preds = %8
  unreachable

10:                                               ; preds = %8
  %11 = landingpad { ptr, i32 }
          cleanup
  %12 = load ptr, ptr %3, align 8, !tbaa !28
  %13 = getelementptr inbounds nuw i8, ptr %3, i64 16
  %14 = icmp eq ptr %12, %13
  br i1 %14, label %_ZNKSt7__cxx1112basic_stringIcSt11char_traitsIcESaIcEE11_M_is_localEv.exit.thread.i.i, label %_ZNKSt7__cxx1112basic_stringIcSt11char_traitsIcESaIcEE11_M_is_localEv.exit.i.i

_ZNKSt7__cxx1112basic_stringIcSt11char_traitsIcESaIcEE11_M_is_localEv.exit.thread.i.i: ; preds = %10
  %15 = getelementptr inbounds nuw i8, ptr %3, i64 8
  %16 = load i64, ptr %15, align 8, !tbaa !31
  %17 = icmp ult i64 %16, 16
  call void @llvm.assume(i1 %17)
  br label %_ZNSt7__cxx1112basic_stringIcSt11char_traitsIcESaIcEED2Ev.exit

_ZNKSt7__cxx1112basic_stringIcSt11char_traitsIcESaIcEE11_M_is_localEv.exit.i.i: ; preds = %10
  call void @_ZdlPv(ptr noundef %12) #15
  br label %_ZNSt7__cxx1112basic_stringIcSt11char_traitsIcESaIcEED2Ev.exit

_ZNSt7__cxx1112basic_stringIcSt11char_traitsIcESaIcEED2Ev.exit: ; preds = %_ZNKSt7__cxx1112basic_stringIcSt11char_traitsIcESaIcEE11_M_is_localEv.exit.i.i, %_ZNKSt7__cxx1112basic_stringIcSt11char_traitsIcESaIcEE11_M_is_localEv.exit.thread.i.i
  call void @llvm.lifetime.end.p0(i64 1, ptr nonnull %4) #13
  call void @llvm.lifetime.end.p0(i64 32, ptr nonnull %3) #13
  resume { ptr, i32 } %11

18:                                               ; preds = %2
  %19 = getelementptr inbounds nuw i8, ptr %1, i64 64
  %20 = load ptr, ptr %19, align 8, !tbaa !16
  %21 = getelementptr inbounds nuw i8, ptr %20, i64 4
  %22 = load i32, ptr %21, align 4, !tbaa !32
  %23 = load i32, ptr %20, align 4, !tbaa !32
  %.sroa.2.0.insert.ext.i = zext i32 %23 to i64
  %.sroa.2.0.insert.shift.i = shl nuw i64 %.sroa.2.0.insert.ext.i, 32
  %.sroa.0.0.insert.ext.i12 = zext i32 %22 to i64
  %.sroa.0.0.insert.insert.i13 = or disjoint i64 %.sroa.2.0.insert.shift.i, %.sroa.0.0.insert.ext.i12
  %24 = load i32, ptr %1, align 8, !tbaa !17
  %25 = and i32 %24, 7
  %26 = and i32 %24, 5
  %or.cond.i = icmp eq i32 %26, 1
  %27 = icmp eq i32 %25, 4
  %28 = or i1 %or.cond.i, %27
  %29 = select i1 %28, i32 -2147483648, i32 0
  %30 = shl nuw nsw i32 %25, 2
  %31 = lshr i32 675553809, %30
  %32 = shl i32 %31, 3
  %33 = and i32 %32, 120
  %34 = or disjoint i32 %33, %29
  %35 = lshr i32 %24, 3
  %36 = and i32 %35, 511
  %37 = add nuw nsw i32 %36, 1
  %38 = tail call ptr @cvInitImageHeader(ptr noundef %0, i64 %.sroa.0.0.insert.insert.i13, i32 noundef %34, i32 noundef %37, i32 noundef 0, i32 noundef 4)
  %39 = getelementptr inbounds nuw i8, ptr %1, i64 16
  %40 = load ptr, ptr %39, align 8, !tbaa !18
  %41 = getelementptr inbounds nuw i8, ptr %1, i64 72
  %42 = load ptr, ptr %41, align 8, !tbaa !19
  %43 = load i64, ptr %42, align 8, !tbaa !20
  %44 = trunc i64 %43 to i32
  tail call void @cvSetData(ptr noundef %0, ptr noundef %40, i32 noundef %44)
  ret void
}